target datalayout = "e-m:e-p270:32:32-p271:32:32-p272:64:64-i64:64-i128:128-f80:128-n8:16:32:64-S128"
target triple = "x86_64-pc-linux-gnu"

%"class.std::vector" = type { %"struct.std::_Vector_base" }
%"struct.std::_Vector_base" = type { %"struct.std::_Vector_base<std::__cxx11::basic_string<char>, std::allocator<std::__cxx11::basic_string<char>>>::_Vector_impl" }
%"struct.std::_Vector_base<std::__cxx11::basic_string<char>, std::allocator<std::__cxx11::basic_string<char>>>::_Vector_impl" = type { %"struct.std::_Vector_base<std::__cxx11::basic_string<char>, std::allocator<std::__cxx11::basic_string<char>>>::_Vector_impl_data" }
%"struct.std::_Vector_base<std::__cxx11::basic_string<char>, std::allocator<std::__cxx11::basic_string<char>>>::_Vector_impl_data" = type { ptr, ptr, ptr }
%"class.colvar::cvc" = type { %class.colvarparse, %class.colvardeps, %"class.std::__cxx11::basic_string", %"class.std::__cxx11::basic_string", double, i32, double, double, %"class.std::vector.54", i8, %"class.std::vector", %class.colvarvalue, %class.colvarvalue, %class.colvarvalue, %class.colvarvalue, %class.colvarvalue, %class.colvarvalue, double }
%class.colvarparse = type { %class.colvarparams, %"class.std::__cxx11::basic_string", %"class.std::__cxx11::basic_string", %"class.std::__cxx11::list", %"class.std::map.34", %"class.std::__cxx11::list.39", %"class.std::__cxx11::list.39", %"class.std::__cxx11::basic_string" }
%class.colvarparams = type { ptr, %"class.std::map", %"class.std::map.23" }
%"class.std::map" = type { %"class.std::_Rb_tree" }
%"class.std::_Rb_tree" = type { %"struct.std::_Rb_tree<std::__cxx11::basic_string<char>, std::pair<const std::__cxx11::basic_string<char>, const void *>, std::_Select1st<std::pair<const std::__cxx11::basic_string<char>, const void *>>, std::less<std::__cxx11::basic_string<char>>>::_Rb_tree_impl" }
%"struct.std::_Rb_tree<std::__cxx11::basic_string<char>, std::pair<const std::__cxx11::basic_string<char>, const void *>, std::_Select1st<std::pair<const std::__cxx11::basic_string<char>, const void *>>, std::less<std::__cxx11::basic_string<char>>>::_Rb_tree_impl" = type { [8 x i8], %"struct.std::_Rb_tree_header" }
%"struct.std::_Rb_tree_header" = type { %"struct.std::_Rb_tree_node_base", i64 }
%"struct.std::_Rb_tree_node_base" = type { i32, ptr, ptr, ptr }
%"class.std::map.23" = type { %"class.std::_Rb_tree.24" }
%"class.std::_Rb_tree.24" = type { %"struct.std::_Rb_tree<std::__cxx11::basic_string<char>, std::pair<const std::__cxx11::basic_string<char>, const colvarvalue *>, std::_Select1st<std::pair<const std::__cxx11::basic_string<char>, const colvarvalue *>>, std::less<std::__cxx11::basic_string<char>>>::_Rb_tree_impl" }
%"struct.std::_Rb_tree<std::__cxx11::basic_string<char>, std::pair<const std::__cxx11::basic_string<char>, const colvarvalue *>, std::_Select1st<std::pair<const std::__cxx11::basic_string<char>, const colvarvalue *>>, std::less<std::__cxx11::basic_string<char>>>::_Rb_tree_impl" = type { [8 x i8], %"struct.std::_Rb_tree_header" }
%"class.std::__cxx11::list" = type { %"class.std::__cxx11::_List_base" }
%"class.std::__cxx11::_List_base" = type { %"struct.std::__cxx11::_List_base<std::__cxx11::basic_string<char>, std::allocator<std::__cxx11::basic_string<char>>>::_List_impl" }
%"struct.std::__cxx11::_List_base<std::__cxx11::basic_string<char>, std::allocator<std::__cxx11::basic_string<char>>>::_List_impl" = type { %"struct.std::__detail::_List_node_header" }
%"struct.std::__detail::_List_node_header" = type { %"struct.std::__detail::_List_node_base", i64 }
%"struct.std::__detail::_List_node_base" = type { ptr, ptr }
%"class.std::map.34" = type { %"class.std::_Rb_tree.35" }
%"class.std::_Rb_tree.35" = type { %"struct.std::_Rb_tree<std::__cxx11::basic_string<char>, std::pair<const std::__cxx11::basic_string<char>, colvarparse::key_set_mode>, std::_Select1st<std::pair<const std::__cxx11::basic_string<char>, colvarparse::key_set_mode>>, std::less<std::__cxx11::basic_string<char>>>::_Rb_tree_impl" }
%"struct.std::_Rb_tree<std::__cxx11::basic_string<char>, std::pair<const std::__cxx11::basic_string<char>, colvarparse::key_set_mode>, std::_Select1st<std::pair<const std::__cxx11::basic_string<char>, colvarparse::key_set_mode>>, std::less<std::__cxx11::basic_string<char>>>::_Rb_tree_impl" = type { [8 x i8], %"struct.std::_Rb_tree_header" }
%"class.std::__cxx11::list.39" = type { %"class.std::__cxx11::_List_base.40" }
%"class.std::__cxx11::_List_base.40" = type { %"struct.std::__cxx11::_List_base<unsigned long, std::allocator<unsigned long>>::_List_impl" }
%"struct.std::__cxx11::_List_base<unsigned long, std::allocator<unsigned long>>::_List_impl" = type { %"struct.std::__detail::_List_node_header" }
%class.colvardeps = type { ptr, %"class.std::__cxx11::basic_string", i32, %"class.std::vector.44", %"class.std::vector.49", %"class.std::vector.49" }
%"class.std::vector.44" = type { %"struct.std::_Vector_base.45" }
%"struct.std::_Vector_base.45" = type { %"struct.std::_Vector_base<colvardeps::feature_state, std::allocator<colvardeps::feature_state>>::_Vector_impl" }
%"struct.std::_Vector_base<colvardeps::feature_state, std::allocator<colvardeps::feature_state>>::_Vector_impl" = type { %"struct.std::_Vector_base<colvardeps::feature_state, std::allocator<colvardeps::feature_state>>::_Vector_impl_data" }
%"struct.std::_Vector_base<colvardeps::feature_state, std::allocator<colvardeps::feature_state>>::_Vector_impl_data" = type { ptr, ptr, ptr }
%"class.std::vector.49" = type { %"struct.std::_Vector_base.50" }
%"struct.std::_Vector_base.50" = type { %"struct.std::_Vector_base<colvardeps *, std::allocator<colvardeps *>>::_Vector_impl" }
%"struct.std::_Vector_base<colvardeps *, std::allocator<colvardeps *>>::_Vector_impl" = type { %"struct.std::_Vector_base<colvardeps *, std::allocator<colvardeps *>>::_Vector_impl_data" }
%"struct.std::_Vector_base<colvardeps *, std::allocator<colvardeps *>>::_Vector_impl_data" = type { ptr, ptr, ptr }
%"class.std::__cxx11::basic_string" = type { %"struct.std::__cxx11::basic_string<char>::_Alloc_hider", i64, %union.anon }
%"struct.std::__cxx11::basic_string<char>::_Alloc_hider" = type { ptr }
%union.anon = type { i64, [8 x i8] }
%"class.std::vector.54" = type { %"struct.std::_Vector_base.55" }
%"struct.std::_Vector_base.55" = type { %"struct.std::_Vector_base<colvarmodule::atom_group *, std::allocator<colvarmodule::atom_group *>>::_Vector_impl" }
%"struct.std::_Vector_base<colvarmodule::atom_group *, std::allocator<colvarmodule::atom_group *>>::_Vector_impl" = type { %"struct.std::_Vector_base<colvarmodule::atom_group *, std::allocator<colvarmodule::atom_group *>>::_Vector_impl_data" }
%"struct.std::_Vector_base<colvarmodule::atom_group *, std::allocator<colvarmodule::atom_group *>>::_Vector_impl_data" = type { ptr, ptr, ptr }
%class.colvarvalue = type { i32, double, %"class.colvarmodule::rvector", %"class.colvarmodule::quaternion", %"class.colvarmodule::vector1d", %"class.std::vector.10", %"class.std::vector.15", %"class.std::vector.15" }
%"class.colvarmodule::quaternion" = type { double, double, double, double }
%"class.colvarmodule::vector1d" = type { %"class.std::vector.5" }
%"class.std::vector.5" = type { %"struct.std::_Vector_base.6" }
%"struct.std::_Vector_base.6" = type { %"struct.std::_Vector_base<double, std::allocator<double>>::_Vector_impl" }
%"struct.std::_Vector_base<double, std::allocator<double>>::_Vector_impl" = type { %"struct.std::_Vector_base<double, std::allocator<double>>::_Vector_impl_data" }
%"struct.std::_Vector_base<double, std::allocator<double>>::_Vector_impl_data" = type { ptr, ptr, ptr }
%"class.std::vector.10" = type { %"struct.std::_Vector_base.11" }
%"struct.std::_Vector_base.11" = type { %"struct.std::_Vector_base<colvarvalue::Type, std::allocator<colvarvalue::Type>>::_Vector_impl" }
%"struct.std::_Vector_base<colvarvalue::Type, std::allocator<colvarvalue::Type>>::_Vector_impl" = type { %"struct.std::_Vector_base<colvarvalue::Type, std::allocator<colvarvalue::Type>>::_Vector_impl_data" }
%"struct.std::_Vector_base<colvarvalue::Type, std::allocator<colvarvalue::Type>>::_Vector_impl_data" = type { ptr, ptr, ptr }
%"class.std::vector.15" = type { %"struct.std::_Vector_base.16" }
%"struct.std::_Vector_base.16" = type { %"struct.std::_Vector_base<int, std::allocator<int>>::_Vector_impl" }
%"struct.std::_Vector_base<int, std::allocator<int>>::_Vector_impl" = type { %"struct.std::_Vector_base<int, std::allocator<int>>::_Vector_impl_data" }
%"struct.std::_Vector_base<int, std::allocator<int>>::_Vector_impl_data" = type { ptr, ptr, ptr }
%"class.colvarmodule::rvector" = type { double, double, double }
%"class.colvar::distance_z" = type <{ %"class.colvar::cvc", ptr, ptr, ptr, %"class.colvarmodule::rvector", double, %"class.colvarmodule::rvector", i8, [7 x i8] }>
%"struct.colvardeps::feature_state" = type { i8, i8, i32, %"class.std::vector.15" }

; Function Attrs: inlinehint mustprogress nounwind uwtable
define linkonce_odr void @_ZN12colvarmodule7rvector3setEddd(ptr noundef nonnull align 8 dereferenceable(24) %0, double noundef %1, double noundef %2, double noundef %3) #8 comdat align 2 {
  %5 = alloca ptr, align 8
  %6 = alloca double, align 8
  %7 = alloca double, align 8
  %8 = alloca double, align 8
  store ptr %0, ptr %5, align 8, !tbaa !227
  store double %1, ptr %6, align 8, !tbaa !95
  store double %2, ptr %7, align 8, !tbaa !95
  store double %3, ptr %8, align 8, !tbaa !95
  %9 = load ptr, ptr %5, align 8
  %10 = load double, ptr %6, align 8, !tbaa !95
  %11 = getelementptr inbounds nuw %"class.colvarmodule::rvector", ptr %9, i32 0, i32 0
  store double %10, ptr %11, align 8, !tbaa !251
  %12 = load double, ptr %7, align 8, !tbaa !95
  %13 = getelementptr inbounds nuw %"class.colvarmodule::rvector", ptr %9, i32 0, i32 1
  store double %12, ptr %13, align 8, !tbaa !250
  %14 = load double, ptr %8, align 8, !tbaa !95
  %15 = getelementptr inbounds nuw %"class.colvarmodule::rvector", ptr %9, i32 0, i32 2
  store double %14, ptr %15, align 8, !tbaa !249
  ret void
}

; Function Attrs: inlinehint mustprogress uwtable
define linkonce_odr void @_ZN12colvarmodule7rvectorC2Eddd(ptr noundef nonnull align 8 dereferenceable(24) %0, double noundef %1, double noundef %2, double noundef %3) unnamed_addr #6 comdat align 2 {
  %5 = alloca ptr, align 8
  %6 = alloca double, align 8
  %7 = alloca double, align 8
  %8 = alloca double, align 8
  store ptr %0, ptr %5, align 8, !tbaa !227
  store double %1, ptr %6, align 8, !tbaa !95
  store double %2, ptr %7, align 8, !tbaa !95
  store double %3, ptr %8, align 8, !tbaa !95
  %9 = load ptr, ptr %5, align 8
  %10 = load double, ptr %6, align 8, !tbaa !95
  %11 = load double, ptr %7, align 8, !tbaa !95
  %12 = load double, ptr %8, align 8, !tbaa !95
  call void @_ZN12colvarmodule7rvector3setEddd(ptr noundef nonnull align 8 dereferenceable(24) %9, double noundef %10, double noundef %11, double noundef %12)
  ret void
}

; Function Attrs: mustprogress nounwind uwtable
define linkonce_odr noundef nonnull align 8 dereferenceable(32) ptr @_ZNKSt6vectorIN10colvardeps13feature_stateESaIS1_EEixEm(ptr noundef nonnull align 8 dereferenceable(24) %0, i64 noundef %1) #1 comdat align 2 {
  %3 = alloca ptr, align 8
  %4 = alloca i64, align 8
  store ptr %0, ptr %3, align 8, !tbaa !267
  store i64 %1, ptr %4, align 8, !tbaa !156
  %5 = load ptr, ptr %3, align 8
  %6 = getelementptr inbounds nuw %"struct.std::_Vector_base.45", ptr %5, i32 0, i32 0
  %7 = getelementptr inbounds nuw %"struct.std::_Vector_base<colvardeps::feature_state, std::allocator<colvardeps::feature_state>>::_Vector_impl_data", ptr %6, i32 0, i32 0
  %8 = load ptr, ptr %7, align 8, !tbaa !269
  %9 = load i64, ptr %4, align 8, !tbaa !156
  %10 = getelementptr inbounds nuw %"struct.colvardeps::feature_state", ptr %8, i64 %9
  ret ptr %10
}

; Function Attrs: inlinehint mustprogress nounwind uwtable
define linkonce_odr noundef double @_ZmlRKN12colvarmodule7rvectorES2_(ptr noundef nonnull align 8 dereferenceable(24) %0, ptr noundef nonnull align 8 dereferenceable(24) %1) #8 comdat {
  %3 = alloca ptr, align 8
  %4 = alloca ptr, align 8
  store ptr %0, ptr %3, align 8, !tbaa !227
  store ptr %1, ptr %4, align 8, !tbaa !227
  %5 = load ptr, ptr %3, align 8, !tbaa !227
  %6 = getelementptr inbounds nuw %"class.colvarmodule::rvector", ptr %5, i32 0, i32 0
  %7 = load double, ptr %6, align 8, !tbaa !251
  %8 = load ptr, ptr %4, align 8, !tbaa !227
  %9 = getelementptr inbounds nuw %"class.colvarmodule::rvector", ptr %8, i32 0, i32 0
  %10 = load double, ptr %9, align 8, !tbaa !251
  %11 = load ptr, ptr %3, align 8, !tbaa !227
  %12 = getelementptr inbounds nuw %"class.colvarmodule::rvector", ptr %11, i32 0, i32 1
  %13 = load double, ptr %12, align 8, !tbaa !250
  %14 = load ptr, ptr %4, align 8, !tbaa !227
  %15 = getelementptr inbounds nuw %"class.colvarmodule::rvector", ptr %14, i32 0, i32 1
  %16 = load double, ptr %15, align 8, !tbaa !250
  %17 = fmul double %13, %16
  %18 = call double @llvm.fmuladd.f64(double %7, double %10, double %17)
  %19 = load ptr, ptr %3, align 8, !tbaa !227
  %20 = getelementptr inbounds nuw %"class.colvarmodule::rvector", ptr %19, i32 0, i32 2
  %21 = load double, ptr %20, align 8, !tbaa !249
  %22 = load ptr, ptr %4, align 8, !tbaa !227
  %23 = getelementptr inbounds nuw %"class.colvarmodule::rvector", ptr %22, i32 0, i32 2
  %24 = load double, ptr %23, align 8, !tbaa !249
  %25 = call double @llvm.fmuladd.f64(double %21, double %24, double %18)
  ret double %25
}

; Function Attrs: inlinehint mustprogress uwtable
define linkonce_odr void @_ZmiRKN12colvarmodule7rvectorES2_(ptr dead_on_unwind noalias writable sret(%"class.colvarmodule::rvector") align 8 %0, ptr noundef nonnull align 8 dereferenceable(24) %1, ptr noundef nonnull align 8 dereferenceable(24) %2) #6 comdat {
  %4 = alloca ptr, align 8
  %5 = alloca ptr, align 8
  store ptr %1, ptr %4, align 8, !tbaa !227
  store ptr %2, ptr %5, align 8, !tbaa !227
  %6 = load ptr, ptr %4, align 8, !tbaa !227
  %7 = getelementptr inbounds nuw %"class.colvarmodule::rvector", ptr %6, i32 0, i32 0
  %8 = load double, ptr %7, align 8, !tbaa !251
  %9 = load ptr, ptr %5, align 8, !tbaa !227
  %10 = getelementptr inbounds nuw %"class.colvarmodule::rvector", ptr %9, i32 0, i32 0
  %11 = load double, ptr %10, align 8, !tbaa !251
  %12 = fsub double %8, %11
  %13 = load ptr, ptr %4, align 8, !tbaa !227
  %14 = getelementptr inbounds nuw %"class.colvarmodule::rvector", ptr %13, i32 0, i32 1
  %15 = load double, ptr %14, align 8, !tbaa !250
  %16 = load ptr, ptr %5, align 8, !tbaa !227
  %17 = getelementptr inbounds nuw %"class.colvarmodule::rvector", ptr %16, i32 0, i32 1
  %18 = load double, ptr %17, align 8, !tbaa !250
  %19 = fsub double %15, %18
  %20 = load ptr, ptr %4, align 8, !tbaa !227
  %21 = getelementptr inbounds nuw %"class.colvarmodule::rvector", ptr %20, i32 0, i32 2
  %22 = load double, ptr %21, align 8, !tbaa !249
  %23 = load ptr, ptr %5, align 8, !tbaa !227
  %24 = getelementptr inbounds nuw %"class.colvarmodule::rvector", ptr %23, i32 0, i32 2
  %25 = load double, ptr %24, align 8, !tbaa !249
  %26 = fsub double %22, %25
  call void @_ZN12colvarmodule7rvectorC2Eddd(ptr noundef nonnull align 8 dereferenceable(24) %0, double noundef %12, double noundef %19, double noundef %26)
  ret void
}

; Function Attrs: inlinehint mustprogress nounwind uwtable
define linkonce_odr noundef zeroext i1 @_ZNK10colvardeps10is_enabledEi(ptr noundef nonnull align 8 dereferenceable(120) %0, i32 noundef %1) #8 comdat align 2 {
  %3 = alloca ptr, align 8
  %4 = alloca i32, align 4
  store ptr %0, ptr %3, align 8, !tbaa !99
  store i32 %1, ptr %4, align 4, !tbaa !11
  %5 = load ptr, ptr %3, align 8
  %6 = getelementptr inbounds nuw %class.colvardeps, ptr %5, i32 0, i32 3
  %7 = load i32, ptr %4, align 4, !tbaa !11
  %8 = sext i32 %7 to i64
  %9 = call noundef nonnull align 8 dereferenceable(32) ptr @_ZNKSt6vectorIN10colvardeps13feature_stateESaIS1_EEixEm(ptr noundef nonnull align 8 dereferenceable(24) %6, i64 noundef %8) #17
  %10 = getelementptr inbounds nuw %"struct.colvardeps::feature_state", ptr %9, i32 0, i32 1
  %11 = load i8, ptr %10, align 1, !tbaa !264, !range !120, !noundef !121
  %12 = trunc i8 %11 to i1
  ret i1 %12
}

; Function Attrs: mustprogress uwtable
define void @_ZN6colvar10distance_z19calc_force_invgradsEv(ptr noundef nonnull align 8 dereferenceable(1689) %0) unnamed_addr #2 align 2 {
  %2 = alloca ptr, align 8
  %3 = alloca %"class.colvarmodule::rvector", align 8
  %4 = alloca %"class.colvarmodule::rvector", align 8
  %5 = alloca %"class.colvarmodule::rvector", align 8
  %6 = alloca %"class.colvarmodule::rvector", align 8
  store ptr %0, ptr %2, align 8, !tbaa !124
  %7 = load ptr, ptr %2, align 8
  %8 = getelementptr inbounds nuw %"class.colvar::distance_z", ptr %7, i32 0, i32 1
  %9 = load ptr, ptr %8, align 8, !tbaa !126
  call void @_ZN12colvarmodule10atom_group17read_total_forcesEv(ptr noundef nonnull align 8 dereferenceable(1496) %9)
  %10 = getelementptr inbounds nuw %"class.colvar::distance_z", ptr %7, i32 0, i32 7
  %11 = load i8, ptr %10, align 8, !tbaa !130, !range !120, !noundef !121
  %12 = trunc i8 %11 to i1
  br i1 %12, label %13, label %28

13:                                               ; preds = %1
  %14 = getelementptr inbounds i8, ptr %7, i64 320
  %15 = call noundef zeroext i1 @_ZNK10colvardeps10is_enabledEi(ptr noundef nonnull align 8 dereferenceable(120) %14, i32 noundef 11)
  br i1 %15, label %28, label %16

16:                                               ; preds = %13
  %17 = getelementptr inbounds nuw %"class.colvar::distance_z", ptr %7, i32 0, i32 2
  %18 = load ptr, ptr %17, align 8, !tbaa !128
  call void @_ZN12colvarmodule10atom_group17read_total_forcesEv(ptr noundef nonnull align 8 dereferenceable(1496) %18)
  call void @llvm.lifetime.start.p0(i64 24, ptr %3) #17
  call void @llvm.lifetime.start.p0(i64 24, ptr %4) #17
  %19 = getelementptr inbounds nuw %"class.colvar::distance_z", ptr %7, i32 0, i32 1
  %20 = load ptr, ptr %19, align 8, !tbaa !126
  call void @_ZNK12colvarmodule10atom_group11total_forceEv(ptr dead_on_unwind writable sret(%"class.colvarmodule::rvector") align 8 %4, ptr noundef nonnull align 8 dereferenceable(1496) %20)
  call void @llvm.lifetime.start.p0(i64 24, ptr %5) #17
  %21 = getelementptr inbounds nuw %"class.colvar::distance_z", ptr %7, i32 0, i32 2
  %22 = load ptr, ptr %21, align 8, !tbaa !128
  call void @_ZNK12colvarmodule10atom_group11total_forceEv(ptr dead_on_unwind writable sret(%"class.colvarmodule::rvector") align 8 %5, ptr noundef nonnull align 8 dereferenceable(1496) %22)
  call void @_ZmiRKN12colvarmodule7rvectorES2_(ptr dead_on_unwind writable sret(%"class.colvarmodule::rvector") align 8 %3, ptr noundef nonnull align 8 dereferenceable(24) %4, ptr noundef nonnull align 8 dereferenceable(24) %5)
  %23 = getelementptr inbounds nuw %"class.colvar::distance_z", ptr %7, i32 0, i32 4
  %24 = call noundef double @_ZmlRKN12colvarmodule7rvectorES2_(ptr noundef nonnull align 8 dereferenceable(24) %3, ptr noundef nonnull align 8 dereferenceable(24) %23)
  %25 = fmul double 5.000000e-01, %24
  %26 = getelementptr inbounds nuw %"class.colvar::cvc", ptr %7, i32 0, i32 13
  %27 = getelementptr inbounds nuw %class.colvarvalue, ptr %26, i32 0, i32 1
  store double %25, ptr %27, align 8, !tbaa !97
  call void @llvm.lifetime.end.p0(i64 24, ptr %5) #17
  call void @llvm.lifetime.end.p0(i64 24, ptr %4) #17
  call void @llvm.lifetime.end.p0(i64 24, ptr %3) #17
  br label %35

28:                                               ; preds = %13, %1
  call void @llvm.lifetime.start.p0(i64 24, ptr %6) #17
  %29 = getelementptr inbounds nuw %"class.colvar::distance_z", ptr %7, i32 0, i32 1
  %30 = load ptr, ptr %29, align 8, !tbaa !126
  call void @_ZNK12colvarmodule10atom_group11total_forceEv(ptr dead_on_unwind writable sret(%"class.colvarmodule::rvector") align 8 %6, ptr noundef nonnull align 8 dereferenceable(1496) %30)
  %31 = getelementptr inbounds nuw %"class.colvar::distance_z", ptr %7, i32 0, i32 4
  %32 = call noundef double @_ZmlRKN12colvarmodule7rvectorES2_(ptr noundef nonnull align 8 dereferenceable(24) %6, ptr noundef nonnull align 8 dereferenceable(24) %31)
  %33 = getelementptr inbounds nuw %"class.colvar::cvc", ptr %7, i32 0, i32 13
  %34 = getelementptr inbounds nuw %class.colvarvalue, ptr %33, i32 0, i32 1
  store double %32, ptr %34, align 8, !tbaa !97
  call void @llvm.lifetime.end.p0(i64 24, ptr %6) #17
  br label %35

35:                                               ; preds = %28, %16
  ret void
}