; Function Attrs: mustprogress uwtable
define void @_ZN6colvar10distance_z19calc_force_invgradsEv(ptr noundef nonnull align 8 captures(none) dereferenceable(1689) initializes((936, 944)) %0) unnamed_addr #2 align 2 {
  %2 = alloca %"class.colvarmodule::rvector", align 8
  %3 = alloca %"class.colvarmodule::rvector", align 8
  %4 = alloca %"class.colvarmodule::rvector", align 8
  %5 = getelementptr inbounds nuw i8, ptr %0, i64 1608
  %6 = load ptr, ptr %5, align 8, !tbaa !168
  tail call void @_ZN12colvarmodule10atom_group17read_total_forcesEv(ptr noundef nonnull align 8 dereferenceable(1496) %6)
  %7 = getelementptr inbounds nuw i8, ptr %0, i64 1688
  %8 = load i8, ptr %7, align 8, !tbaa !177, !range !91, !noundef !92
  %9 = trunc nuw i8 %8 to i1
  br i1 %9, label %10, label %45

10:                                               ; preds = %1
  %11 = getelementptr inbounds nuw i8, ptr %0, i64 368
  %12 = load ptr, ptr %11, align 8, !tbaa !88
  %13 = getelementptr inbounds nuw i8, ptr %12, i64 353
  %14 = load i8, ptr %13, align 1, !tbaa !89, !range !91, !noundef !92
  %15 = trunc nuw i8 %14 to i1
  br i1 %15, label %45, label %16

16:                                               ; preds = %10
  %17 = getelementptr inbounds nuw i8, ptr %0, i64 1616
  %18 = load ptr, ptr %17, align 8, !tbaa !170
  tail call void @_ZN12colvarmodule10atom_group17read_total_forcesEv(ptr noundef nonnull align 8 dereferenceable(1496) %18)
  call void @llvm.lifetime.start.p0(i64 24, ptr nonnull %2) #26
  %19 = load ptr, ptr %5, align 8, !tbaa !168
  call void @_ZNK12colvarmodule10atom_group11total_forceEv(ptr dead_on_unwind nonnull writable sret(%"class.colvarmodule::rvector") align 8 %2, ptr noundef nonnull align 8 dereferenceable(1496) %19)
  call void @llvm.lifetime.start.p0(i64 24, ptr nonnull %3) #26
  %20 = load ptr, ptr %17, align 8, !tbaa !170
  call void @_ZNK12colvarmodule10atom_group11total_forceEv(ptr dead_on_unwind nonnull writable sret(%"class.colvarmodule::rvector") align 8 %3, ptr noundef nonnull align 8 dereferenceable(1496) %20)
  %21 = load double, ptr %2, align 8, !tbaa !95, !noalias !221
  %22 = load double, ptr %3, align 8, !tbaa !95, !noalias !221
  %23 = fsub double %21, %22
  %24 = getelementptr inbounds nuw i8, ptr %2, i64 8
  %25 = load double, ptr %24, align 8, !tbaa !96, !noalias !221
  %26 = getelementptr inbounds nuw i8, ptr %3, i64 8
  %27 = load double, ptr %26, align 8, !tbaa !96, !noalias !221
  %28 = fsub double %25, %27
  %29 = getelementptr inbounds nuw i8, ptr %2, i64 16
  %30 = load double, ptr %29, align 8, !tbaa !97, !noalias !221
  %31 = getelementptr inbounds nuw i8, ptr %3, i64 16
  %32 = load double, ptr %31, align 8, !tbaa !97, !noalias !221
  %33 = fsub double %30, %32
  %34 = getelementptr inbounds nuw i8, ptr %0, i64 1632
  %35 = load double, ptr %34, align 8, !tbaa !95
  %36 = getelementptr inbounds nuw i8, ptr %0, i64 1640
  %37 = load double, ptr %36, align 8, !tbaa !96
  %38 = fmul double %28, %37
  %39 = call double @llvm.fmuladd.f64(double %23, double %35, double %38)
  %40 = getelementptr inbounds nuw i8, ptr %0, i64 1648
  %41 = load double, ptr %40, align 8, !tbaa !97
  %42 = call noundef double @llvm.fmuladd.f64(double %33, double %41, double %39)
  %43 = fmul double %42, 5.000000e-01
  %44 = getelementptr inbounds nuw i8, ptr %0, i64 936
  store double %43, ptr %44, align 8, !tbaa !114
  call void @llvm.lifetime.end.p0(i64 24, ptr nonnull %3) #26
  call void @llvm.lifetime.end.p0(i64 24, ptr nonnull %2) #26
  br label %62

45:                                               ; preds = %10, %1
  call void @llvm.lifetime.start.p0(i64 24, ptr nonnull %4) #26
  %46 = load ptr, ptr %5, align 8, !tbaa !168
  call void @_ZNK12colvarmodule10atom_group11total_forceEv(ptr dead_on_unwind nonnull writable sret(%"class.colvarmodule::rvector") align 8 %4, ptr noundef nonnull align 8 dereferenceable(1496) %46)
  %47 = getelementptr inbounds nuw i8, ptr %0, i64 1632
  %48 = load double, ptr %4, align 8, !tbaa !95
  %49 = load double, ptr %47, align 8, !tbaa !95
  %50 = getelementptr inbounds nuw i8, ptr %4, i64 8
  %51 = load double, ptr %50, align 8, !tbaa !96
  %52 = getelementptr inbounds nuw i8, ptr %0, i64 1640
  %53 = load double, ptr %52, align 8, !tbaa !96
  %54 = fmul double %51, %53
  %55 = call double @llvm.fmuladd.f64(double %48, double %49, double %54)
  %56 = getelementptr inbounds nuw i8, ptr %4, i64 16
  %57 = load double, ptr %56, align 8, !tbaa !97
  %58 = getelementptr inbounds nuw i8, ptr %0, i64 1648
  %59 = load double, ptr %58, align 8, !tbaa !97
  %60 = call noundef double @llvm.fmuladd.f64(double %57, double %59, double %55)
  %61 = getelementptr inbounds nuw i8, ptr %0, i64 936
  store double %60, ptr %61, align 8, !tbaa !114
  call void @llvm.lifetime.end.p0(i64 24, ptr nonnull %4) #26
  br label %62

62:                                               ; preds = %45, %16
  ret void
}